Certificate:
    Data:
        Version: 3 (0x2)
        Serial Number:
            61:f4:f3:60:f8:7f:be:23:a9:16:85:78:8a:78:ad:74:1b:ac:6e:5c
        Signature Algorithm: sha256WithRSAEncryption
        Issuer: DC=org, DC=simple, O=Simple Inc, CN=Simple Signing CA
        Validity
            Not Before: May 17 09:21:42 2025 GMT
            Not After : May 17 09:21:42 2027 GMT
        Subject: DC=org, DC=simple, O=Simple Inc, CN=Fred Flintstone/emailAddress=fred@simple.org
        Subject Public Key Info:
            Public Key Algorithm: rsaEncryption
                Public-Key: (2048 bit)
                Modulus:
                    00:e9:b5:89:ed:3c:ee:67:3f:10:ee:51:fa:cf:57:
                    5c:bb:05:25:67:5a:ff:30:c7:7f:f6:49:c7:79:1e:
                    2f:23:e7:66:82:71:0e:63:1f:44:c8:00:30:00:08:
                    61:99:9a:b5:91:a6:1c:9e:e5:7c:92:70:3e:5a:87:
                    f7:51:98:50:24:93:d5:eb:95:68:b7:15:dd:d4:59:
                    b3:f9:de:ce:0a:8d:7e:3b:d2:27:9e:3d:73:11:31:
                    12:ae:5a:d1:20:17:5b:26:1e:f4:4a:2f:4a:a7:1f:
                    ba:9a:dc:da:b2:c6:19:fa:dd:31:54:b8:a5:38:93:
                    6f:93:e0:10:6e:89:61:10:9a:0f:70:4f:67:8c:a1:
                    11:a0:f1:a6:e1:ac:93:b8:5f:6d:d0:ff:91:be:22:
                    f7:d8:3d:37:54:dd:75:f1:03:41:99:4b:e1:6e:14:
                    f7:5c:df:c6:e9:ec:29:d3:47:ab:fb:0b:84:90:55:
                    41:38:2b:14:db:3b:f9:08:e1:4e:b7:b4:fd:34:6c:
                    1a:9c:d2:a1:05:97:73:81:b3:ef:46:d0:d0:59:10:
                    4d:21:c9:e8:50:20:23:00:ed:7b:ff:b8:ba:9d:48:
                    01:26:8b:79:9b:2d:8d:23:fa:8d:9d:76:45:c7:e4:
                    14:8f:dd:b1:4b:44:44:01:a2:e2:44:20:12:3e:35:
                    be:a1
                Exponent: 65537 (0x10001)
        X509v3 extensions:
            X509v3 Key Usage: critical
                Digital Signature, Key Encipherment
            X509v3 Basic Constraints: 
                CA:FALSE
            X509v3 Extended Key Usage: 
                E-mail Protection, TLS Web Client Authentication
            X509v3 Subject Key Identifier: 
                AD:4F:CD:F5:70:1E:01:FA:A8:DC:DD:A8:E0:63:8F:85:C1:D8:48:2C
            X509v3 Authority Key Identifier: 
                2C:31:37:51:4D:B3:08:86:64:83:C5:0A:1C:A8:ED:34:FC:D8:9C:F4
            X509v3 Subject Alternative Name: 
                email:fred@simple.org
    Signature Algorithm: sha256WithRSAEncryption
    Signature Value:
        80:f6:7c:34:f1:0d:5e:7d:f9:4b:66:fa:1f:94:57:76:be:c2:
        89:c1:32:85:59:d4:d9:73:d2:76:83:25:f6:76:b8:14:a3:fc:
        e4:28:57:11:d6:e1:22:e8:99:e0:6d:d4:b1:44:d5:f7:20:9d:
        c3:63:40:51:f1:42:28:50:74:77:54:fd:15:a1:e7:0f:f2:46:
        81:c1:72:37:bc:36:84:44:0d:b9:df:ee:24:f7:51:e2:4e:66:
        03:1c:89:c1:7a:62:ff:41:30:2b:15:bd:0f:a8:38:7d:2a:36:
        d4:b7:1b:72:86:df:ca:c7:b0:28:8b:39:d8:6d:da:03:e7:68:
        78:83:a1:7f:7e:5f:5d:c6:bf:51:e1:a6:79:8d:ac:eb:5a:ef:
        43:bf:01:79:74:b9:68:8a:7e:78:a6:95:84:de:0d:15:07:33:
        62:30:95:8c:4e:6b:49:8e:2a:f9:1a:e7:1d:ca:cc:15:e1:a1:
        cd:3e:e6:1c:2c:2d:9c:13:20:5e:22:ac:79:64:cc:d7:17:08:
        42:43:66:6f:0b:db:4d:2e:66:6f:c1:b9:dd:77:1d:a1:30:25:
        38:fc:6d:bb:89:d8:81:b9:c4:8d:86:4e:fe:d6:40:41:48:60:
        49:4e:92:98:86:b2:ea:0a:1d:26:29:8a:08:c1:f7:51:d2:c2:
        2c:96:69:ce
-----BEGIN CERTIFICATE-----
MIIEAjCCAuqgAwIBAgIUYfTzYPh/viOpFoV4initdBusblwwDQYJKoZIhvcNAQEL
BQAwXjETMBEGCgmSJomT8ixkARkWA29yZzEWMBQGCgmSJomT8ixkARkWBnNpbXBs
ZTETMBEGA1UECgwKU2ltcGxlIEluYzEaMBgGA1UEAwwRU2ltcGxlIFNpZ25pbmcg
Q0EwHhcNMjUwNTE3MDkyMTQyWhcNMjcwNTE3MDkyMTQyWjB8MRMwEQYKCZImiZPy
LGQBGRYDb3JnMRYwFAYKCZImiZPyLGQBGRYGc2ltcGxlMRMwEQYDVQQKDApTaW1w
bGUgSW5jMRgwFgYDVQQDDA9GcmVkIEZsaW50c3RvbmUxHjAcBgkqhkiG9w0BCQEW
D2ZyZWRAc2ltcGxlLm9yZzCCASIwDQYJKoZIhvcNAQEBBQADggEPADCCAQoCggEB
AOm1ie087mc/EO5R+s9XXLsFJWda/zDHf/ZJx3keLyPnZoJxDmMfRMgAMAAIYZma
tZGmHJ7lfJJwPlqH91GYUCST1euVaLcV3dRZs/nezgqNfjvSJ549cxExEq5a0SAX
WyYe9EovSqcfuprc2rLGGfrdMVS4pTiTb5PgEG6JYRCaD3BPZ4yhEaDxpuGsk7hf
bdD/kb4i99g9N1TddfEDQZlL4W4U91zfxunsKdNHq/sLhJBVQTgrFNs7+QjhTre0
/TRsGpzSoQWXc4Gz70bQ0FkQTSHJ6FAgIwDte/+4up1IASaLeZstjSP6jZ12Rcfk
FI/dsUtERAGi4kQgEj41vqECAwEAAaOBmTCBljAOBgNVHQ8BAf8EBAMCBaAwCQYD
VR0TBAIwADAdBgNVHSUEFjAUBggrBgEFBQcDBAYIKwYBBQUHAwIwHQYDVR0OBBYE
FK1PzfVwHgH6qNzdqOBjj4XB2EgsMB8GA1UdIwQYMBaAFCwxN1FNswiGZIPFChyo
7TT82Jz0MBoGA1UdEQQTMBGBD2ZyZWRAc2ltcGxlLm9yZzANBgkqhkiG9w0BAQsF
AAOCAQEAgPZ8NPENXn35S2b6H5RXdr7CicEyhVnU2XPSdoMl9na4FKP85ChXEdbh
IuiZ4G3UsUTV9yCdw2NAUfFCKFB0d1T9FaHnD/JGgcFyN7w2hEQNud/uJPdR4k5m
AxyJwXpi/0EwKxW9D6g4fSo21LcbcobfysewKIs52G3aA+doeIOhf35fXca/UeGm
eY2s61rvQ78BeXS5aIp+eKaVhN4NFQczYjCVjE5rSY4q+RrnHcrMFeGhzT7mHCwt
nBMgXiKseWTM1xcIQkNmbwvbTS5mb8G53XcdoTAlOPxtu4nYgbnEjYZO/tZAQUhg
SU6SmIay6godJimKCMH3UdLCLJZpzg==
-----END CERTIFICATE-----
