Certificate:
    Data:
        Version: 3 (0x2)
        Serial Number:
            79:32:38:f3:97:89:88:a3:56:06:53:d3:8d:eb:9d:ce:fa:8c:e7:ef
        Signature Algorithm: sha256WithRSAEncryption
        Issuer: DC=org, DC=simple, O=Simple Inc, CN=Simple Root CA
        Validity
            Not Before: May 17 09:13:32 2025 GMT
            Not After : May 17 09:13:32 2035 GMT
        Subject: DC=org, DC=simple, O=Simple Inc, CN=Simple Signing CA
        Subject Public Key Info:
            Public Key Algorithm: rsaEncryption
                Public-Key: (2048 bit)
                Modulus:
                    00:9d:a6:91:f9:e0:ca:a5:72:60:c5:95:3e:c6:5a:
                    13:69:01:8c:33:22:ff:76:1d:c5:91:9d:63:89:bd:
                    aa:d0:a2:a8:3a:1f:dc:51:36:64:f7:01:bb:55:9d:
                    4d:92:1a:5e:06:71:d8:20:18:82:b4:25:61:e4:97:
                    d9:7c:8a:8e:17:47:5f:1f:99:ac:ff:e9:31:d9:f2:
                    c9:03:ff:80:ce:74:1f:f7:10:e5:68:3f:7c:f4:b4:
                    4f:3e:16:fb:eb:89:9f:8f:f2:52:86:62:4f:9f:cc:
                    44:6c:ee:0b:6c:2a:a6:bd:3b:c0:df:36:e5:b3:b8:
                    df:b7:cf:e4:4d:c1:08:e3:a4:fb:f5:08:5b:a5:e2:
                    4d:c7:e1:24:91:8f:a5:4f:08:d0:30:a7:21:46:0f:
                    02:2f:32:4e:aa:7a:37:7f:a6:8e:41:fd:b8:2f:7a:
                    06:d6:fc:c8:f0:1d:e9:73:7a:3f:aa:22:11:c0:7b:
                    dd:82:8d:52:5d:3f:7f:b9:99:57:28:4d:48:d2:a0:
                    18:1b:a9:70:ea:f3:26:88:6c:a5:8d:3e:3d:5c:f3:
                    d5:45:fc:76:62:52:b2:80:fd:b8:86:d4:6a:7c:eb:
                    53:db:f5:76:46:18:9c:1d:38:64:89:9e:87:02:1d:
                    ce:48:a2:cf:bc:c3:1b:f8:51:dc:a7:24:58:83:d0:
                    af:2f
                Exponent: 65537 (0x10001)
        X509v3 extensions:
            X509v3 Key Usage: critical
                Certificate Sign, CRL Sign
            X509v3 Basic Constraints: critical
                CA:TRUE, pathlen:0
            X509v3 Subject Key Identifier: 
                2C:31:37:51:4D:B3:08:86:64:83:C5:0A:1C:A8:ED:34:FC:D8:9C:F4
            X509v3 Authority Key Identifier: 
                7A:7D:BA:2A:E9:4B:77:11:91:86:32:46:F6:FD:99:DB:B0:12:FE:81
    Signature Algorithm: sha256WithRSAEncryption
    Signature Value:
        b3:e3:14:9b:8d:36:a9:68:4d:fd:9b:7d:83:91:af:1a:09:5c:
        4d:5e:85:81:c5:45:26:70:71:27:16:24:c3:ff:c6:54:65:f5:
        b9:81:b6:40:24:89:0c:0f:2f:74:61:f7:bc:38:c3:91:31:bb:
        f9:23:32:55:fa:33:d9:34:1b:b4:ee:7e:76:60:fc:70:d3:c9:
        a4:ad:da:37:92:5a:d7:72:f8:c0:03:73:86:cb:a7:c2:bf:87:
        6f:5c:bd:2c:18:8f:76:34:cf:08:28:28:9b:08:fc:80:1d:b4:
        89:43:24:25:3d:1b:ad:d7:7e:27:4a:a5:29:dc:90:8d:c1:58:
        4b:23:cc:4e:66:2a:cf:56:25:f3:15:74:fd:cb:69:37:fa:8d:
        95:9c:3c:ed:19:c2:e7:17:8f:a1:20:bf:7b:e0:e5:3c:06:29:
        37:31:14:70:37:86:e6:90:cd:d9:ff:3f:ba:de:7b:4a:7a:32:
        30:f7:56:ab:cd:d8:fb:ee:61:ef:55:26:a0:08:ba:cd:39:bf:
        e0:e6:5f:89:2f:89:c8:58:2a:e4:53:4d:64:28:b0:9e:02:e6:
        ed:d6:70:e8:76:f5:c2:28:c9:73:9c:88:62:68:2d:cb:63:cb:
        82:c2:b1:63:e1:1a:c3:e4:69:ea:a9:40:44:83:1c:8d:c1:20:
        9d:14:1d:35
-----BEGIN CERTIFICATE-----
MIIDrTCCApWgAwIBAgIUeTI485eJiKNWBlPTjeudzvqM5+8wDQYJKoZIhvcNAQEL
BQAwWzETMBEGCgmSJomT8ixkARkWA29yZzEWMBQGCgmSJomT8ixkARkWBnNpbXBs
ZTETMBEGA1UECgwKU2ltcGxlIEluYzEXMBUGA1UEAwwOU2ltcGxlIFJvb3QgQ0Ew
HhcNMjUwNTE3MDkxMzMyWhcNMzUwNTE3MDkxMzMyWjBeMRMwEQYKCZImiZPyLGQB
GRYDb3JnMRYwFAYKCZImiZPyLGQBGRYGc2ltcGxlMRMwEQYDVQQKDApTaW1wbGUg
SW5jMRowGAYDVQQDDBFTaW1wbGUgU2lnbmluZyBDQTCCASIwDQYJKoZIhvcNAQEB
BQADggEPADCCAQoCggEBAJ2mkfngyqVyYMWVPsZaE2kBjDMi/3YdxZGdY4m9qtCi
qDof3FE2ZPcBu1WdTZIaXgZx2CAYgrQlYeSX2XyKjhdHXx+ZrP/pMdnyyQP/gM50
H/cQ5Wg/fPS0Tz4W++uJn4/yUoZiT5/MRGzuC2wqpr07wN825bO437fP5E3BCOOk
+/UIW6XiTcfhJJGPpU8I0DCnIUYPAi8yTqp6N3+mjkH9uC96Btb8yPAd6XN6P6oi
EcB73YKNUl0/f7mZVyhNSNKgGBupcOrzJohspY0+PVzz1UX8dmJSsoD9uIbUanzr
U9v1dkYYnB04ZImehwIdzkiiz7zDG/hR3KckWIPQry8CAwEAAaNmMGQwDgYDVR0P
AQH/BAQDAgEGMBIGA1UdEwEB/wQIMAYBAf8CAQAwHQYDVR0OBBYEFCwxN1FNswiG
ZIPFChyo7TT82Jz0MB8GA1UdIwQYMBaAFHp9uirpS3cRkYYyRvb9mduwEv6BMA0G
CSqGSIb3DQEBCwUAA4IBAQCz4xSbjTapaE39m32Dka8aCVxNXoWBxUUmcHEnFiTD
/8ZUZfW5gbZAJIkMDy90Yfe8OMORMbv5IzJV+jPZNBu07n52YPxw08mkrdo3klrX
cvjAA3OGy6fCv4dvXL0sGI92NM8IKCibCPyAHbSJQyQlPRut134nSqUp3JCNwVhL
I8xOZirPViXzFXT9y2k3+o2VnDztGcLnF4+hIL974OU8Bik3MRRwN4bmkM3Z/z+6
3ntKejIw91arzdj77mHvVSagCLrNOb/g5l+JL4nIWCrkU01kKLCeAubt1nDodvXC
KMlznIhiaC3LY8uCwrFj4RrD5GnqqUBEgxyNwSCdFB01
-----END CERTIFICATE-----
Certificate:
    Data:
        Version: 3 (0x2)
        Serial Number:
            61:55:e8:6d:1f:12:5d:6a:c6:4b:b5:10:1f:2a:bb:78:a6:90:0f:0f
        Signature Algorithm: sha256WithRSAEncryption
        Issuer: DC=org, DC=simple, O=Simple Inc, CN=Simple Root CA
        Validity
            Not Before: May 16 23:34:39 2025 GMT
            Not After : May 16 23:34:39 2035 GMT
        Subject: DC=org, DC=simple, O=Simple Inc, CN=Simple Root CA
        Subject Public Key Info:
            Public Key Algorithm: rsaEncryption
                Public-Key: (2048 bit)
                Modulus:
                    00:c5:a1:50:16:a9:d8:de:04:92:4b:29:32:2e:59:
                    7e:d5:b9:7e:51:41:2c:03:01:97:e7:9b:cf:78:ea:
                    6b:2f:10:62:41:5a:b3:24:d2:b4:8b:6c:30:a8:f0:
                    68:a4:a3:48:ef:fd:1f:19:3c:22:d4:76:dd:70:ab:
                    6f:f3:a2:55:72:40:9b:b0:4a:86:28:52:1b:18:0e:
                    fd:9a:32:ee:26:e7:32:d6:ea:61:9c:6d:a2:e4:55:
                    b4:f0:eb:fd:e8:81:74:89:56:3c:80:01:73:13:52:
                    9a:ad:b7:2c:1a:0e:6d:30:64:3a:ee:c0:62:b7:72:
                    c1:e8:27:d0:57:67:6c:ba:d3:36:f1:a1:dc:d1:4c:
                    a4:64:7c:df:5b:06:7c:1a:29:9a:1f:83:d9:86:9a:
                    bd:73:af:3f:cf:1c:21:88:f2:13:43:11:7c:0f:31:
                    74:83:1b:04:1e:99:82:0b:eb:15:ba:59:fb:fc:7e:
                    67:3d:bf:d6:72:3f:c2:60:32:59:f6:5c:ee:3b:c1:
                    5e:da:0b:2a:ef:14:10:ed:0f:52:61:c4:2d:7d:94:
                    4f:79:55:c2:c2:3d:33:ca:6e:55:66:bb:65:4b:61:
                    21:27:17:0b:5f:3c:55:59:53:67:f8:f6:94:f3:34:
                    76:68:68:11:11:ab:ba:e5:c1:6b:c2:8e:17:f6:12:
                    3d:77
                Exponent: 65537 (0x10001)
        X509v3 extensions:
            X509v3 Key Usage: critical
                Certificate Sign, CRL Sign
            X509v3 Basic Constraints: critical
                CA:TRUE
            X509v3 Subject Key Identifier: 
                7A:7D:BA:2A:E9:4B:77:11:91:86:32:46:F6:FD:99:DB:B0:12:FE:81
            X509v3 Authority Key Identifier: 
                7A:7D:BA:2A:E9:4B:77:11:91:86:32:46:F6:FD:99:DB:B0:12:FE:81
    Signature Algorithm: sha256WithRSAEncryption
    Signature Value:
        0f:e4:fe:81:0e:4a:14:e2:f1:bd:ec:40:27:d0:63:49:f0:a2:
        5b:e4:1a:63:4d:34:65:b1:05:56:77:d3:bc:20:5f:eb:e5:b3:
        53:22:62:ef:19:53:fc:df:45:cc:19:df:31:25:6b:33:3e:28:
        93:b3:0f:33:ee:fe:b4:50:c9:f9:2e:c1:64:b7:c2:73:21:14:
        4c:7f:3b:a1:3f:b6:f3:2f:e2:dd:4b:74:75:ae:20:e9:9d:00:
        dd:93:4f:80:34:2d:d9:89:9f:c7:9f:0f:70:a4:58:8c:99:4c:
        3f:61:0a:e6:36:2e:13:8e:f6:61:d3:cd:99:04:80:92:3b:41:
        4e:18:30:e5:c5:b2:66:40:88:61:6a:22:da:61:27:ef:07:11:
        7e:44:25:83:d8:df:09:51:a5:09:8a:65:cc:f4:f9:19:6e:65:
        1c:5c:57:66:7f:35:ae:db:49:87:42:0d:17:4e:17:78:cc:2e:
        71:12:64:9a:27:90:a9:ec:b9:19:50:a5:d0:ac:51:a1:46:e8:
        49:a4:f0:bd:7e:bf:5c:8a:c9:05:68:eb:13:dc:c7:88:50:3d:
        c2:76:09:20:0e:81:40:fe:ac:5a:e2:1c:9f:10:99:63:b1:33:
        b4:bc:d9:a0:cf:b9:8c:2f:15:25:36:92:72:8f:91:e2:1d:5d:
        d7:86:fe:cb
-----BEGIN CERTIFICATE-----
MIIDpzCCAo+gAwIBAgIUYVXobR8SXWrGS7UQHyq7eKaQDw8wDQYJKoZIhvcNAQEL
BQAwWzETMBEGCgmSJomT8ixkARkWA29yZzEWMBQGCgmSJomT8ixkARkWBnNpbXBs
ZTETMBEGA1UECgwKU2ltcGxlIEluYzEXMBUGA1UEAwwOU2ltcGxlIFJvb3QgQ0Ew
HhcNMjUwNTE2MjMzNDM5WhcNMzUwNTE2MjMzNDM5WjBbMRMwEQYKCZImiZPyLGQB
GRYDb3JnMRYwFAYKCZImiZPyLGQBGRYGc2ltcGxlMRMwEQYDVQQKDApTaW1wbGUg
SW5jMRcwFQYDVQQDDA5TaW1wbGUgUm9vdCBDQTCCASIwDQYJKoZIhvcNAQEBBQAD
ggEPADCCAQoCggEBAMWhUBap2N4EkkspMi5ZftW5flFBLAMBl+ebz3jqay8QYkFa
syTStItsMKjwaKSjSO/9Hxk8ItR23XCrb/OiVXJAm7BKhihSGxgO/Zoy7ibnMtbq
YZxtouRVtPDr/eiBdIlWPIABcxNSmq23LBoObTBkOu7AYrdywegn0FdnbLrTNvGh
3NFMpGR831sGfBopmh+D2YaavXOvP88cIYjyE0MRfA8xdIMbBB6ZggvrFbpZ+/x+
Zz2/1nI/wmAyWfZc7jvBXtoLKu8UEO0PUmHELX2UT3lVwsI9M8puVWa7ZUthIScX
C188VVlTZ/j2lPM0dmhoERGruuXBa8KOF/YSPXcCAwEAAaNjMGEwDgYDVR0PAQH/
BAQDAgEGMA8GA1UdEwEB/wQFMAMBAf8wHQYDVR0OBBYEFHp9uirpS3cRkYYyRvb9
mduwEv6BMB8GA1UdIwQYMBaAFHp9uirpS3cRkYYyRvb9mduwEv6BMA0GCSqGSIb3
DQEBCwUAA4IBAQAP5P6BDkoU4vG97EAn0GNJ8KJb5BpjTTRlsQVWd9O8IF/r5bNT
ImLvGVP830XMGd8xJWszPiiTsw8z7v60UMn5LsFkt8JzIRRMfzuhP7bzL+LdS3R1
riDpnQDdk0+ANC3ZiZ/Hnw9wpFiMmUw/YQrmNi4TjvZh082ZBICSO0FOGDDlxbJm
QIhhaiLaYSfvBxF+RCWD2N8JUaUJimXM9PkZbmUcXFdmfzWu20mHQg0XThd4zC5x
EmSaJ5Cp7LkZUKXQrFGhRuhJpPC9fr9ciskFaOsT3MeIUD3CdgkgDoFA/qxa4hyf
EJljsTO0vNmgz7mMLxUlNpJyj5HiHV3Xhv7L
-----END CERTIFICATE-----
