Certificate:
    Data:
        Version: 3 (0x2)
        Serial Number:
            79:32:38:f3:97:89:88:a3:56:06:53:d3:8d:eb:9d:ce:fa:8c:e7:ef
        Signature Algorithm: sha256WithRSAEncryption
        Issuer: DC=org, DC=simple, O=Simple Inc, CN=Simple Root CA
        Validity
            Not Before: May 17 09:13:32 2025 GMT
            Not After : May 17 09:13:32 2035 GMT
        Subject: DC=org, DC=simple, O=Simple Inc, CN=Simple Signing CA
        Subject Public Key Info:
            Public Key Algorithm: rsaEncryption
                Public-Key: (2048 bit)
                Modulus:
                    00:9d:a6:91:f9:e0:ca:a5:72:60:c5:95:3e:c6:5a:
                    13:69:01:8c:33:22:ff:76:1d:c5:91:9d:63:89:bd:
                    aa:d0:a2:a8:3a:1f:dc:51:36:64:f7:01:bb:55:9d:
                    4d:92:1a:5e:06:71:d8:20:18:82:b4:25:61:e4:97:
                    d9:7c:8a:8e:17:47:5f:1f:99:ac:ff:e9:31:d9:f2:
                    c9:03:ff:80:ce:74:1f:f7:10:e5:68:3f:7c:f4:b4:
                    4f:3e:16:fb:eb:89:9f:8f:f2:52:86:62:4f:9f:cc:
                    44:6c:ee:0b:6c:2a:a6:bd:3b:c0:df:36:e5:b3:b8:
                    df:b7:cf:e4:4d:c1:08:e3:a4:fb:f5:08:5b:a5:e2:
                    4d:c7:e1:24:91:8f:a5:4f:08:d0:30:a7:21:46:0f:
                    02:2f:32:4e:aa:7a:37:7f:a6:8e:41:fd:b8:2f:7a:
                    06:d6:fc:c8:f0:1d:e9:73:7a:3f:aa:22:11:c0:7b:
                    dd:82:8d:52:5d:3f:7f:b9:99:57:28:4d:48:d2:a0:
                    18:1b:a9:70:ea:f3:26:88:6c:a5:8d:3e:3d:5c:f3:
                    d5:45:fc:76:62:52:b2:80:fd:b8:86:d4:6a:7c:eb:
                    53:db:f5:76:46:18:9c:1d:38:64:89:9e:87:02:1d:
                    ce:48:a2:cf:bc:c3:1b:f8:51:dc:a7:24:58:83:d0:
                    af:2f
                Exponent: 65537 (0x10001)
        X509v3 extensions:
            X509v3 Key Usage: critical
                Certificate Sign, CRL Sign
            X509v3 Basic Constraints: critical
                CA:TRUE, pathlen:0
            X509v3 Subject Key Identifier: 
                2C:31:37:51:4D:B3:08:86:64:83:C5:0A:1C:A8:ED:34:FC:D8:9C:F4
            X509v3 Authority Key Identifier: 
                7A:7D:BA:2A:E9:4B:77:11:91:86:32:46:F6:FD:99:DB:B0:12:FE:81
    Signature Algorithm: sha256WithRSAEncryption
    Signature Value:
        b3:e3:14:9b:8d:36:a9:68:4d:fd:9b:7d:83:91:af:1a:09:5c:
        4d:5e:85:81:c5:45:26:70:71:27:16:24:c3:ff:c6:54:65:f5:
        b9:81:b6:40:24:89:0c:0f:2f:74:61:f7:bc:38:c3:91:31:bb:
        f9:23:32:55:fa:33:d9:34:1b:b4:ee:7e:76:60:fc:70:d3:c9:
        a4:ad:da:37:92:5a:d7:72:f8:c0:03:73:86:cb:a7:c2:bf:87:
        6f:5c:bd:2c:18:8f:76:34:cf:08:28:28:9b:08:fc:80:1d:b4:
        89:43:24:25:3d:1b:ad:d7:7e:27:4a:a5:29:dc:90:8d:c1:58:
        4b:23:cc:4e:66:2a:cf:56:25:f3:15:74:fd:cb:69:37:fa:8d:
        95:9c:3c:ed:19:c2:e7:17:8f:a1:20:bf:7b:e0:e5:3c:06:29:
        37:31:14:70:37:86:e6:90:cd:d9:ff:3f:ba:de:7b:4a:7a:32:
        30:f7:56:ab:cd:d8:fb:ee:61:ef:55:26:a0:08:ba:cd:39:bf:
        e0:e6:5f:89:2f:89:c8:58:2a:e4:53:4d:64:28:b0:9e:02:e6:
        ed:d6:70:e8:76:f5:c2:28:c9:73:9c:88:62:68:2d:cb:63:cb:
        82:c2:b1:63:e1:1a:c3:e4:69:ea:a9:40:44:83:1c:8d:c1:20:
        9d:14:1d:35
-----BEGIN CERTIFICATE-----
MIIDrTCCApWgAwIBAgIUeTI485eJiKNWBlPTjeudzvqM5+8wDQYJKoZIhvcNAQEL
BQAwWzETMBEGCgmSJomT8ixkARkWA29yZzEWMBQGCgmSJomT8ixkARkWBnNpbXBs
ZTETMBEGA1UECgwKU2ltcGxlIEluYzEXMBUGA1UEAwwOU2ltcGxlIFJvb3QgQ0Ew
HhcNMjUwNTE3MDkxMzMyWhcNMzUwNTE3MDkxMzMyWjBeMRMwEQYKCZImiZPyLGQB
GRYDb3JnMRYwFAYKCZImiZPyLGQBGRYGc2ltcGxlMRMwEQYDVQQKDApTaW1wbGUg
SW5jMRowGAYDVQQDDBFTaW1wbGUgU2lnbmluZyBDQTCCASIwDQYJKoZIhvcNAQEB
BQADggEPADCCAQoCggEBAJ2mkfngyqVyYMWVPsZaE2kBjDMi/3YdxZGdY4m9qtCi
qDof3FE2ZPcBu1WdTZIaXgZx2CAYgrQlYeSX2XyKjhdHXx+ZrP/pMdnyyQP/gM50
H/cQ5Wg/fPS0Tz4W++uJn4/yUoZiT5/MRGzuC2wqpr07wN825bO437fP5E3BCOOk
+/UIW6XiTcfhJJGPpU8I0DCnIUYPAi8yTqp6N3+mjkH9uC96Btb8yPAd6XN6P6oi
EcB73YKNUl0/f7mZVyhNSNKgGBupcOrzJohspY0+PVzz1UX8dmJSsoD9uIbUanzr
U9v1dkYYnB04ZImehwIdzkiiz7zDG/hR3KckWIPQry8CAwEAAaNmMGQwDgYDVR0P
AQH/BAQDAgEGMBIGA1UdEwEB/wQIMAYBAf8CAQAwHQYDVR0OBBYEFCwxN1FNswiG
ZIPFChyo7TT82Jz0MB8GA1UdIwQYMBaAFHp9uirpS3cRkYYyRvb9mduwEv6BMA0G
CSqGSIb3DQEBCwUAA4IBAQCz4xSbjTapaE39m32Dka8aCVxNXoWBxUUmcHEnFiTD
/8ZUZfW5gbZAJIkMDy90Yfe8OMORMbv5IzJV+jPZNBu07n52YPxw08mkrdo3klrX
cvjAA3OGy6fCv4dvXL0sGI92NM8IKCibCPyAHbSJQyQlPRut134nSqUp3JCNwVhL
I8xOZirPViXzFXT9y2k3+o2VnDztGcLnF4+hIL974OU8Bik3MRRwN4bmkM3Z/z+6
3ntKejIw91arzdj77mHvVSagCLrNOb/g5l+JL4nIWCrkU01kKLCeAubt1nDodvXC
KMlznIhiaC3LY8uCwrFj4RrD5GnqqUBEgxyNwSCdFB01
-----END CERTIFICATE-----
